target datalayout = "e-m:e-p270:32:32-p271:32:32-p272:64:64-i64:64-i128:128-f80:128-n8:16:32:64-S128"
target triple = "x86_64-pc-linux-gnu"

%struct.ossl_property_definition_st = type { i32, i32, i32, i8, %union.anon }
%union.anon = type { i64 }

@.str = private unnamed_addr constant [44 x i8] c"../openssl/crypto/property/property_parse.c\00", align 1
@.str.2 = private unnamed_addr constant [10 x i8] c"HERE-->%s\00", align 1
@.str.3 = private unnamed_addr constant [3 x i8] c"!=\00", align 1
@__func__.ossl_parse_query = private unnamed_addr constant [17 x i8] c"ossl_parse_query\00", align 1

; Function Attrs: inlinehint nounwind uwtable
define internal void @sk_OSSL_PROPERTY_DEFINITION_pop_free(ptr noundef %0, ptr noundef %1) #2 {
  %3 = alloca ptr, align 8
  %4 = alloca ptr, align 8
  store ptr %0, ptr %3, align 8, !tbaa !14
  store ptr %1, ptr %4, align 8, !tbaa !25
  %5 = load ptr, ptr %3, align 8, !tbaa !14
  %6 = load ptr, ptr %4, align 8, !tbaa !25
  call void @OPENSSL_sk_pop_free(ptr noundef %5, ptr noundef %6)
  ret void
}

; Function Attrs: inlinehint nounwind uwtable
define internal i32 @sk_OSSL_PROPERTY_DEFINITION_push(ptr noundef %0, ptr noundef %1) #2 {
  %3 = alloca ptr, align 8
  %4 = alloca ptr, align 8
  store ptr %0, ptr %3, align 8, !tbaa !14
  store ptr %1, ptr %4, align 8, !tbaa !10
  %5 = load ptr, ptr %3, align 8, !tbaa !14
  %6 = load ptr, ptr %4, align 8, !tbaa !10
  %7 = call i32 @OPENSSL_sk_push(ptr noundef %5, ptr noundef %6)
  ret i32 %7
}

; Function Attrs: nounwind uwtable
define internal i32 @match(ptr noundef %0, ptr noundef %1, i64 noundef %2) #0 {
  %4 = alloca i32, align 4
  %5 = alloca ptr, align 8
  %6 = alloca ptr, align 8
  %7 = alloca i64, align 8
  %8 = alloca ptr, align 8
  %9 = alloca i32, align 4
  store ptr %0, ptr %5, align 8, !tbaa !29
  store ptr %1, ptr %6, align 8, !tbaa !8
  store i64 %2, ptr %7, align 8, !tbaa !33
  call void @llvm.lifetime.start.p0(i64 8, ptr %8) #7
  %10 = load ptr, ptr %5, align 8, !tbaa !29
  %11 = load ptr, ptr %10, align 8, !tbaa !8
  store ptr %11, ptr %8, align 8, !tbaa !8
  %12 = load ptr, ptr %8, align 8, !tbaa !8
  %13 = load ptr, ptr %6, align 8, !tbaa !8
  %14 = load i64, ptr %7, align 8, !tbaa !33
  %15 = call i32 @OPENSSL_strncasecmp(ptr noundef %12, ptr noundef %13, i64 noundef %14)
  %16 = icmp eq i32 %15, 0
  br i1 %16, label %17, label %23

17:                                               ; preds = %3
  %18 = load ptr, ptr %8, align 8, !tbaa !8
  %19 = load i64, ptr %7, align 8, !tbaa !33
  %20 = getelementptr inbounds nuw i8, ptr %18, i64 %19
  %21 = call ptr @skip_space(ptr noundef %20)
  %22 = load ptr, ptr %5, align 8, !tbaa !29
  store ptr %21, ptr %22, align 8, !tbaa !8
  store i32 1, ptr %4, align 4
  store i32 1, ptr %9, align 4
  br label %24

23:                                               ; preds = %3
  store i32 0, ptr %4, align 4
  store i32 1, ptr %9, align 4
  br label %24

24:                                               ; preds = %23, %17
  call void @llvm.lifetime.end.p0(i64 8, ptr %8) #7
  %25 = load i32, ptr %4, align 4
  ret i32 %25
}

; Function Attrs: nounwind uwtable
define internal i32 @match_ch(ptr noundef %0, i8 noundef signext %1) #0 {
  %3 = alloca i32, align 4
  %4 = alloca ptr, align 8
  %5 = alloca i8, align 1
  %6 = alloca ptr, align 8
  %7 = alloca i32, align 4
  store ptr %0, ptr %4, align 8, !tbaa !29
  store i8 %1, ptr %5, align 1, !tbaa !16
  call void @llvm.lifetime.start.p0(i64 8, ptr %6) #7
  %8 = load ptr, ptr %4, align 8, !tbaa !29
  %9 = load ptr, ptr %8, align 8, !tbaa !8
  store ptr %9, ptr %6, align 8, !tbaa !8
  %10 = load ptr, ptr %6, align 8, !tbaa !8
  %11 = load i8, ptr %10, align 1, !tbaa !16
  %12 = sext i8 %11 to i32
  %13 = load i8, ptr %5, align 1, !tbaa !16
  %14 = sext i8 %13 to i32
  %15 = icmp eq i32 %12, %14
  br i1 %15, label %16, label %21

16:                                               ; preds = %2
  %17 = load ptr, ptr %6, align 8, !tbaa !8
  %18 = getelementptr inbounds i8, ptr %17, i64 1
  %19 = call ptr @skip_space(ptr noundef %18)
  %20 = load ptr, ptr %4, align 8, !tbaa !29
  store ptr %19, ptr %20, align 8, !tbaa !8
  store i32 1, ptr %3, align 4
  store i32 1, ptr %7, align 4
  br label %22

21:                                               ; preds = %2
  store i32 0, ptr %3, align 4
  store i32 1, ptr %7, align 4
  br label %22

22:                                               ; preds = %21, %16
  call void @llvm.lifetime.end.p0(i64 8, ptr %6) #7
  %23 = load i32, ptr %3, align 4
  ret i32 %23
}

; Function Attrs: nounwind uwtable
define internal ptr @skip_space(ptr noundef %0) #0 {
  %2 = alloca ptr, align 8
  store ptr %0, ptr %2, align 8, !tbaa !8
  br label %3

3:                                                ; preds = %9, %1
  %4 = load ptr, ptr %2, align 8, !tbaa !8
  %5 = load i8, ptr %4, align 1, !tbaa !16
  %6 = sext i8 %5 to i32
  %7 = call i32 @ossl_ctype_check(i32 noundef %6, i32 noundef 8)
  %8 = icmp ne i32 %7, 0
  br i1 %8, label %9, label %12

9:                                                ; preds = %3
  %10 = load ptr, ptr %2, align 8, !tbaa !8
  %11 = getelementptr inbounds nuw i8, ptr %10, i32 1
  store ptr %11, ptr %2, align 8, !tbaa !8
  br label %3, !llvm.loop !28

12:                                               ; preds = %3
  %13 = load ptr, ptr %2, align 8, !tbaa !8
  ret ptr %13
}

; Function Attrs: inlinehint nounwind uwtable
define internal ptr @sk_OSSL_PROPERTY_DEFINITION_new(ptr noundef %0) #2 {
  %2 = alloca ptr, align 8
  store ptr %0, ptr %2, align 8, !tbaa !25
  %3 = load ptr, ptr %2, align 8, !tbaa !25
  %4 = call ptr @OPENSSL_sk_new(ptr noundef %3)
  ret ptr %4
}

; Function Attrs: nounwind uwtable
define ptr @ossl_parse_query(ptr noundef %0, ptr noundef %1, i32 noundef %2) #0 {
  %4 = alloca ptr, align 8
  %5 = alloca ptr, align 8
  %6 = alloca ptr, align 8
  %7 = alloca i32, align 4
  %8 = alloca ptr, align 8
  %9 = alloca ptr, align 8
  %10 = alloca ptr, align 8
  %11 = alloca i32, align 4
  %12 = alloca i32, align 4
  store ptr %0, ptr %5, align 8, !tbaa !3
  store ptr %1, ptr %6, align 8, !tbaa !8
  store i32 %2, ptr %7, align 4, !tbaa !17
  call void @llvm.lifetime.start.p0(i64 8, ptr %8) #7
  call void @llvm.lifetime.start.p0(i64 8, ptr %9) #7
  store ptr null, ptr %9, align 8, !tbaa !12
  call void @llvm.lifetime.start.p0(i64 8, ptr %10) #7
  store ptr null, ptr %10, align 8, !tbaa !10
  call void @llvm.lifetime.start.p0(i64 4, ptr %11) #7
  %13 = load ptr, ptr %6, align 8, !tbaa !8
  %14 = icmp eq ptr %13, null
  br i1 %14, label %18, label %15

15:                                               ; preds = %3
  %16 = call ptr @sk_OSSL_PROPERTY_DEFINITION_new(ptr noundef @pd_compare)
  store ptr %16, ptr %8, align 8, !tbaa !14
  %17 = icmp eq ptr %16, null
  br i1 %17, label %18, label %19

18:                                               ; preds = %15, %3
  store ptr null, ptr %4, align 8
  store i32 1, ptr %12, align 4
  br label %127

19:                                               ; preds = %15
  %20 = load ptr, ptr %6, align 8, !tbaa !8
  %21 = call ptr @skip_space(ptr noundef %20)
  store ptr %21, ptr %6, align 8, !tbaa !8
  %22 = load ptr, ptr %6, align 8, !tbaa !8
  %23 = load i8, ptr %22, align 1, !tbaa !16
  %24 = sext i8 %23 to i32
  %25 = icmp eq i32 %24, 0
  %26 = zext i1 %25 to i32
  store i32 %26, ptr %11, align 4, !tbaa !17
  br label %27

27:                                               ; preds = %107, %19
  %28 = load i32, ptr %11, align 4, !tbaa !17
  %29 = icmp ne i32 %28, 0
  %30 = xor i1 %29, true
  br i1 %30, label %31, label %112

31:                                               ; preds = %27
  %32 = call noalias ptr @CRYPTO_malloc(i64 noundef 24, ptr noundef @.str, i32 noundef 418)
  store ptr %32, ptr %10, align 8, !tbaa !10
  %33 = load ptr, ptr %10, align 8, !tbaa !10
  %34 = icmp eq ptr %33, null
  br i1 %34, label %35, label %36

35:                                               ; preds = %31
  br label %123

36:                                               ; preds = %31
  %37 = load ptr, ptr %10, align 8, !tbaa !10
  %38 = getelementptr inbounds nuw %struct.ossl_property_definition_st, ptr %37, i32 0, i32 4
  call void @llvm.memset.p0.i64(ptr align 8 %38, i8 0, i64 8, i1 false)
  %39 = call i32 @match_ch(ptr noundef %6, i8 noundef signext 45)
  %40 = icmp ne i32 %39, 0
  br i1 %40, label %41, label %56

41:                                               ; preds = %36
  %42 = load ptr, ptr %10, align 8, !tbaa !10
  %43 = getelementptr inbounds nuw %struct.ossl_property_definition_st, ptr %42, i32 0, i32 2
  store i32 2, ptr %43, align 8, !tbaa !19
  %44 = load ptr, ptr %10, align 8, !tbaa !10
  %45 = getelementptr inbounds nuw %struct.ossl_property_definition_st, ptr %44, i32 0, i32 3
  %46 = load i8, ptr %45, align 4
  %47 = and i8 %46, -2
  %48 = or i8 %47, 0
  store i8 %48, ptr %45, align 4
  %49 = load ptr, ptr %5, align 8, !tbaa !3
  %50 = load ptr, ptr %10, align 8, !tbaa !10
  %51 = getelementptr inbounds nuw %struct.ossl_property_definition_st, ptr %50, i32 0, i32 0
  %52 = call i32 @parse_name(ptr noundef %49, ptr noundef %6, i32 noundef 1, ptr noundef %51)
  %53 = icmp ne i32 %52, 0
  br i1 %53, label %55, label %54

54:                                               ; preds = %41
  br label %123

55:                                               ; preds = %41
  br label %101

56:                                               ; preds = %36
  %57 = call i32 @match_ch(ptr noundef %6, i8 noundef signext 63)
  %58 = load ptr, ptr %10, align 8, !tbaa !10
  %59 = getelementptr inbounds nuw %struct.ossl_property_definition_st, ptr %58, i32 0, i32 3
  %60 = trunc i32 %57 to i8
  %61 = load i8, ptr %59, align 4
  %62 = and i8 %60, 1
  %63 = and i8 %61, -2
  %64 = or i8 %63, %62
  store i8 %64, ptr %59, align 4
  %65 = load ptr, ptr %5, align 8, !tbaa !3
  %66 = load ptr, ptr %10, align 8, !tbaa !10
  %67 = getelementptr inbounds nuw %struct.ossl_property_definition_st, ptr %66, i32 0, i32 0
  %68 = call i32 @parse_name(ptr noundef %65, ptr noundef %6, i32 noundef 1, ptr noundef %67)
  %69 = icmp ne i32 %68, 0
  br i1 %69, label %71, label %70

70:                                               ; preds = %56
  br label %123

71:                                               ; preds = %56
  %72 = call i32 @match_ch(ptr noundef %6, i8 noundef signext 61)
  %73 = icmp ne i32 %72, 0
  br i1 %73, label %74, label %77

74:                                               ; preds = %71
  %75 = load ptr, ptr %10, align 8, !tbaa !10
  %76 = getelementptr inbounds nuw %struct.ossl_property_definition_st, ptr %75, i32 0, i32 2
  store i32 0, ptr %76, align 8, !tbaa !19
  br label %91

77:                                               ; preds = %71
  %78 = call i32 @match(ptr noundef %6, ptr noundef @.str.3, i64 noundef 2)
  %79 = icmp ne i32 %78, 0
  br i1 %79, label %80, label %83

80:                                               ; preds = %77
  %81 = load ptr, ptr %10, align 8, !tbaa !10
  %82 = getelementptr inbounds nuw %struct.ossl_property_definition_st, ptr %81, i32 0, i32 2
  store i32 1, ptr %82, align 8, !tbaa !19
  br label %90

83:                                               ; preds = %77
  %84 = load ptr, ptr %10, align 8, !tbaa !10
  %85 = getelementptr inbounds nuw %struct.ossl_property_definition_st, ptr %84, i32 0, i32 2
  store i32 0, ptr %85, align 8, !tbaa !19
  %86 = load ptr, ptr %10, align 8, !tbaa !10
  %87 = getelementptr inbounds nuw %struct.ossl_property_definition_st, ptr %86, i32 0, i32 1
  store i32 0, ptr %87, align 4, !tbaa !22
  %88 = load ptr, ptr %10, align 8, !tbaa !10
  %89 = getelementptr inbounds nuw %struct.ossl_property_definition_st, ptr %88, i32 0, i32 4
  store i32 1, ptr %89, align 8, !tbaa !16
  br label %101

90:                                               ; preds = %80
  br label %91

91:                                               ; preds = %90, %74
  %92 = load ptr, ptr %5, align 8, !tbaa !3
  %93 = load ptr, ptr %10, align 8, !tbaa !10
  %94 = load i32, ptr %7, align 4, !tbaa !17
  %95 = call i32 @parse_value(ptr noundef %92, ptr noundef %6, ptr noundef %93, i32 noundef %94)
  %96 = icmp ne i32 %95, 0
  br i1 %96, label %100, label %97

97:                                               ; preds = %91
  %98 = load ptr, ptr %10, align 8, !tbaa !10
  %99 = getelementptr inbounds nuw %struct.ossl_property_definition_st, ptr %98, i32 0, i32 1
  store i32 2, ptr %99, align 4, !tbaa !22
  br label %100

100:                                              ; preds = %97, %91
  br label %101

101:                                              ; preds = %100, %83, %55
  %102 = load ptr, ptr %8, align 8, !tbaa !14
  %103 = load ptr, ptr %10, align 8, !tbaa !10
  %104 = call i32 @sk_OSSL_PROPERTY_DEFINITION_push(ptr noundef %102, ptr noundef %103)
  %105 = icmp ne i32 %104, 0
  br i1 %105, label %107, label %106

106:                                              ; preds = %101
  br label %123

107:                                              ; preds = %101
  store ptr null, ptr %10, align 8, !tbaa !10
  %108 = call i32 @match_ch(ptr noundef %6, i8 noundef signext 44)
  %109 = icmp ne i32 %108, 0
  %110 = xor i1 %109, true
  %111 = zext i1 %110 to i32
  store i32 %111, ptr %11, align 4, !tbaa !17
  br label %27, !llvm.loop !40

112:                                              ; preds = %27
  %113 = load ptr, ptr %6, align 8, !tbaa !8
  %114 = load i8, ptr %113, align 1, !tbaa !16
  %115 = sext i8 %114 to i32
  %116 = icmp ne i32 %115, 0
  br i1 %116, label %117, label %119

117:                                              ; preds = %112
  call void @ERR_new()
  call void @ERR_set_debug(ptr noundef @.str, i32 noundef 455, ptr noundef @__func__.ossl_parse_query)
  %118 = load ptr, ptr %6, align 8, !tbaa !8
  call void (i32, i32, ptr, ...) @ERR_set_error(i32 noundef 55, i32 noundef 110, ptr noundef @.str.2, ptr noundef %118)
  br label %123

119:                                              ; preds = %112
  %120 = load ptr, ptr %5, align 8, !tbaa !3
  %121 = load ptr, ptr %8, align 8, !tbaa !14
  %122 = call ptr @stack_to_property_list(ptr noundef %120, ptr noundef %121)
  store ptr %122, ptr %9, align 8, !tbaa !12
  br label %123

123:                                              ; preds = %119, %117, %106, %70, %54, %35
  %124 = load ptr, ptr %10, align 8, !tbaa !10
  call void @CRYPTO_free(ptr noundef %124, ptr noundef @.str, i32 noundef 462)
  %125 = load ptr, ptr %8, align 8, !tbaa !14
  call void @sk_OSSL_PROPERTY_DEFINITION_pop_free(ptr noundef %125, ptr noundef @pd_free)
  %126 = load ptr, ptr %9, align 8, !tbaa !12
  store ptr %126, ptr %4, align 8
  store i32 1, ptr %12, align 4
  br label %127

127:                                              ; preds = %123, %18
  call void @llvm.lifetime.end.p0(i64 4, ptr %11) #7
  call void @llvm.lifetime.end.p0(i64 8, ptr %10) #7
  call void @llvm.lifetime.end.p0(i64 8, ptr %9) #7
  call void @llvm.lifetime.end.p0(i64 8, ptr %8) #7
  %128 = load ptr, ptr %4, align 8
  ret ptr %128
}