; Function Attrs: nounwind uwtable
define ptr @ossl_parse_query(ptr noundef %0, ptr noundef %1, i32 noundef %2) local_unnamed_addr #0 {
  %4 = alloca ptr, align 8
  %5 = icmp eq ptr %1, null
  br i1 %5, label %73, label %6

6:                                                ; preds = %3
  %7 = tail call ptr @OPENSSL_sk_new(ptr noundef nonnull @pd_compare) #9
  %8 = icmp eq ptr %7, null
  br i1 %8, label %73, label %.preheader

.preheader:                                       ; preds = %6, %.preheader
  %.0.i = phi ptr [ %12, %.preheader ], [ %1, %6 ]
  %9 = load i8, ptr %.0.i, align 1, !tbaa !3
  %10 = sext i8 %9 to i32
  %11 = tail call i32 @ossl_ctype_check(i32 noundef %10, i32 noundef 8) #9
  %.not.i = icmp eq i32 %11, 0
  %12 = getelementptr inbounds nuw i8, ptr %.0.i, i64 1
  br i1 %.not.i, label %skip_space.exit, label %.preheader, !llvm.loop !6

skip_space.exit:                                  ; preds = %.preheader
  store ptr %.0.i, ptr %4, align 8, !tbaa !8
  %13 = load i8, ptr %.0.i, align 1, !tbaa !3
  %.not71 = icmp eq i8 %13, 0
  br i1 %.not71, label %._crit_edge.thread, label %.lr.ph.preheader

.lr.ph.preheader:                                 ; preds = %skip_space.exit
  %14 = tail call noalias ptr @CRYPTO_malloc(i64 noundef 24, ptr noundef nonnull @.str, i32 noundef 418) #9
  %15 = icmp eq ptr %14, null
  br i1 %15, label %.loopexit, label %.lr.ph79

.lr.ph79:                                         ; preds = %.lr.ph.preheader, %skip_space.exit.i63
  %16 = phi ptr [ %69, %skip_space.exit.i63 ], [ %14, %.lr.ph.preheader ]
  %17 = phi ptr [ %.0.i.i61, %skip_space.exit.i63 ], [ %.0.i, %.lr.ph.preheader ]
  %18 = getelementptr inbounds nuw i8, ptr %16, i64 16
  store i64 0, ptr %18, align 8
  %19 = load i8, ptr %17, align 1, !tbaa !3
  switch i8 %19, label %match_ch.exit46 [
    i8 45, label %.preheader.i
    i8 63, label %.preheader.i41
  ]

.preheader.i:                                     ; preds = %.lr.ph79, %.preheader.i
  %.pn.i = phi ptr [ %.0.i.i, %.preheader.i ], [ %17, %.lr.ph79 ]
  %.0.i.i = getelementptr inbounds nuw i8, ptr %.pn.i, i64 1
  %20 = load i8, ptr %.0.i.i, align 1, !tbaa !3
  %21 = sext i8 %20 to i32
  %22 = tail call i32 @ossl_ctype_check(i32 noundef %21, i32 noundef 8) #9
  %.not.i.i = icmp eq i32 %22, 0
  br i1 %.not.i.i, label %23, label %.preheader.i, !llvm.loop !6

23:                                               ; preds = %.preheader.i
  store ptr %.0.i.i, ptr %4, align 8, !tbaa !8
  %24 = getelementptr inbounds nuw i8, ptr %16, i64 8
  store i32 2, ptr %24, align 8, !tbaa !11
  %25 = getelementptr inbounds nuw i8, ptr %16, i64 12
  %26 = load i8, ptr %25, align 4
  %27 = and i8 %26, -2
  store i8 %27, ptr %25, align 4
  %28 = call fastcc i32 @parse_name(ptr noundef %0, ptr noundef %4, ptr noundef %16)
  %.not37 = icmp eq i32 %28, 0
  br i1 %.not37, label %.loopexit, label %61

.preheader.i41:                                   ; preds = %.lr.ph79, %.preheader.i41
  %.pn.i42 = phi ptr [ %.0.i.i43, %.preheader.i41 ], [ %17, %.lr.ph79 ]
  %.0.i.i43 = getelementptr inbounds nuw i8, ptr %.pn.i42, i64 1
  %29 = load i8, ptr %.0.i.i43, align 1, !tbaa !3
  %30 = sext i8 %29 to i32
  %31 = tail call i32 @ossl_ctype_check(i32 noundef %30, i32 noundef 8) #9
  %.not.i.i44 = icmp eq i32 %31, 0
  br i1 %.not.i.i44, label %skip_space.exit.i45, label %.preheader.i41, !llvm.loop !6

skip_space.exit.i45:                              ; preds = %.preheader.i41
  store ptr %.0.i.i43, ptr %4, align 8, !tbaa !8
  br label %match_ch.exit46

match_ch.exit46:                                  ; preds = %.lr.ph79, %skip_space.exit.i45
  %.0.i40 = phi i8 [ 1, %skip_space.exit.i45 ], [ 0, %.lr.ph79 ]
  %32 = getelementptr inbounds nuw i8, ptr %16, i64 12
  %33 = load i8, ptr %32, align 4
  %34 = and i8 %33, -2
  %35 = or disjoint i8 %34, %.0.i40
  store i8 %35, ptr %32, align 4
  %36 = call fastcc i32 @parse_name(ptr noundef %0, ptr noundef %4, ptr noundef %16)
  %.not33 = icmp eq i32 %36, 0
  br i1 %.not33, label %.loopexit, label %37

37:                                               ; preds = %match_ch.exit46
  %38 = load ptr, ptr %4, align 8, !tbaa !8
  %39 = load i8, ptr %38, align 1, !tbaa !3
  %40 = icmp eq i8 %39, 61
  br i1 %40, label %.preheader.i48, label %44

.preheader.i48:                                   ; preds = %37, %.preheader.i48
  %.pn.i49 = phi ptr [ %.0.i.i50, %.preheader.i48 ], [ %38, %37 ]
  %.0.i.i50 = getelementptr inbounds nuw i8, ptr %.pn.i49, i64 1
  %41 = load i8, ptr %.0.i.i50, align 1, !tbaa !3
  %42 = sext i8 %41 to i32
  %43 = tail call i32 @ossl_ctype_check(i32 noundef %42, i32 noundef 8) #9
  %.not.i.i51 = icmp eq i32 %43, 0
  br i1 %.not.i.i51, label %.loopexit76, label %.preheader.i48, !llvm.loop !6

44:                                               ; preds = %37
  %45 = tail call i32 @OPENSSL_strncasecmp(ptr noundef nonnull %38, ptr noundef nonnull @.str.3, i64 noundef 2) #9
  %46 = icmp eq i32 %45, 0
  br i1 %46, label %47, label %54

47:                                               ; preds = %44
  %48 = getelementptr inbounds nuw i8, ptr %38, i64 2
  br label %49

49:                                               ; preds = %49, %47
  %.0.i.i55 = phi ptr [ %48, %47 ], [ %53, %49 ]
  %50 = load i8, ptr %.0.i.i55, align 1, !tbaa !3
  %51 = sext i8 %50 to i32
  %52 = tail call i32 @ossl_ctype_check(i32 noundef %51, i32 noundef 8) #9
  %.not.i.i56 = icmp eq i32 %52, 0
  %53 = getelementptr inbounds nuw i8, ptr %.0.i.i55, i64 1
  br i1 %.not.i.i56, label %.loopexit76, label %49, !llvm.loop !6

54:                                               ; preds = %44
  %55 = getelementptr inbounds nuw i8, ptr %16, i64 8
  store i32 0, ptr %55, align 8, !tbaa !11
  %56 = getelementptr inbounds nuw i8, ptr %16, i64 4
  store i32 0, ptr %56, align 4, !tbaa !15
  store i32 1, ptr %18, align 8, !tbaa !3
  br label %61

.loopexit76:                                      ; preds = %49, %.preheader.i48
  %.0.i.i55.lcssa.sink = phi ptr [ %.0.i.i50, %.preheader.i48 ], [ %.0.i.i55, %49 ]
  %.sink = phi i32 [ 0, %.preheader.i48 ], [ 1, %49 ]
  store ptr %.0.i.i55.lcssa.sink, ptr %4, align 8, !tbaa !8
  %57 = getelementptr inbounds nuw i8, ptr %16, i64 8
  store i32 %.sink, ptr %57, align 8, !tbaa !11
  %58 = call fastcc i32 @parse_value(ptr noundef %0, ptr noundef %4, ptr noundef %16, i32 noundef %2)
  %.not36 = icmp eq i32 %58, 0
  br i1 %.not36, label %59, label %61

59:                                               ; preds = %.loopexit76
  %60 = getelementptr inbounds nuw i8, ptr %16, i64 4
  store i32 2, ptr %60, align 4, !tbaa !15
  br label %61

61:                                               ; preds = %.loopexit76, %59, %23, %54
  %62 = tail call i32 @OPENSSL_sk_push(ptr noundef nonnull %7, ptr noundef nonnull %16) #9
  %.not38 = icmp eq i32 %62, 0
  br i1 %.not38, label %.loopexit, label %63

63:                                               ; preds = %61
  %64 = load ptr, ptr %4, align 8, !tbaa !8
  %65 = load i8, ptr %64, align 1, !tbaa !3
  switch i8 %65, label %71 [
    i8 44, label %.preheader.i59
    i8 0, label %._crit_edge.thread
  ]

.preheader.i59:                                   ; preds = %63, %.preheader.i59
  %.pn.i60 = phi ptr [ %.0.i.i61, %.preheader.i59 ], [ %64, %63 ]
  %.0.i.i61 = getelementptr inbounds nuw i8, ptr %.pn.i60, i64 1
  %66 = load i8, ptr %.0.i.i61, align 1, !tbaa !3
  %67 = sext i8 %66 to i32
  %68 = tail call i32 @ossl_ctype_check(i32 noundef %67, i32 noundef 8) #9
  %.not.i.i62 = icmp eq i32 %68, 0
  br i1 %.not.i.i62, label %skip_space.exit.i63, label %.preheader.i59, !llvm.loop !6

skip_space.exit.i63:                              ; preds = %.preheader.i59
  store ptr %.0.i.i61, ptr %4, align 8, !tbaa !8
  %69 = tail call noalias ptr @CRYPTO_malloc(i64 noundef 24, ptr noundef nonnull @.str, i32 noundef 418) #9
  %70 = icmp eq ptr %69, null
  br i1 %70, label %.loopexit, label %.lr.ph79

71:                                               ; preds = %63
  tail call void @ERR_new() #9
  tail call void @ERR_set_debug(ptr noundef nonnull @.str, i32 noundef 455, ptr noundef nonnull @__func__.ossl_parse_query) #9
  tail call void (i32, i32, ptr, ...) @ERR_set_error(i32 noundef 55, i32 noundef 110, ptr noundef nonnull @.str.2, ptr noundef nonnull %64) #9
  br label %.loopexit

._crit_edge.thread:                               ; preds = %63, %skip_space.exit
  %72 = tail call fastcc ptr @stack_to_property_list(ptr noundef %0, ptr noundef %7)
  br label %.loopexit

.loopexit:                                        ; preds = %skip_space.exit.i63, %23, %match_ch.exit46, %61, %.lr.ph.preheader, %._crit_edge.thread, %71
  %.027 = phi ptr [ null, %71 ], [ %72, %._crit_edge.thread ], [ null, %.lr.ph.preheader ], [ null, %61 ], [ null, %match_ch.exit46 ], [ null, %23 ], [ null, %skip_space.exit.i63 ]
  %.1 = phi ptr [ null, %71 ], [ null, %._crit_edge.thread ], [ null, %.lr.ph.preheader ], [ null, %skip_space.exit.i63 ], [ %16, %23 ], [ %16, %match_ch.exit46 ], [ %16, %61 ]
  tail call void @CRYPTO_free(ptr noundef %.1, ptr noundef nonnull @.str, i32 noundef 462) #9
  tail call void @OPENSSL_sk_pop_free(ptr noundef nonnull %7, ptr noundef nonnull @pd_free) #9
  br label %73

73:                                               ; preds = %3, %6, %.loopexit
  %.028 = phi ptr [ %.027, %.loopexit ], [ null, %6 ], [ null, %3 ]
  ret ptr %.028
}